; Function Attrs: mustprogress uwtable
define noundef i32 @_ZNK6casadi24CSparseCholeskyInterface5sfactEPvPKd(ptr nocapture nonnull readnone align 8 %0, ptr noundef %1, ptr noundef %2) unnamed_addr #4 align 2 {
  %4 = getelementptr inbounds i8, ptr %1, i64 64
  %5 = getelementptr inbounds i8, ptr %1, i64 96
  store ptr %2, ptr %5, align 8
  %6 = tail call ptr @cs_schol(i32 noundef 0, ptr noundef nonnull %4)
  %7 = getelementptr inbounds i8, ptr %1, i64 112
  store ptr %6, ptr %7, align 8
  ret i32 0
}